target datalayout = "e-m:e-p270:32:32-p271:32:32-p272:64:64-i64:64-i128:128-f80:128-n8:16:32:64-S128"
target triple = "x86_64-pc-linux-gnu"

%struct.mncp_rhash_key = type { ptr, i32, i8 }

; Function Attrs: nounwind null_pointer_is_valid sspstrong uwtable
define internal i32 @mncp_hash(ptr noundef %0) #7 {
  %2 = alloca ptr, align 8
  %3 = alloca ptr, align 8
  store ptr %0, ptr %2, align 8
  call void @llvm.lifetime.start.p0(i64 8, ptr %3) #8
  %4 = load ptr, ptr %2, align 8
  store ptr %4, ptr %3, align 8
  %5 = load ptr, ptr %3, align 8
  %6 = getelementptr inbounds nuw %struct.mncp_rhash_key, ptr %5, i32 0, i32 0
  %7 = load ptr, ptr %6, align 8
  %8 = ptrtoint ptr %7 to i64
  %9 = trunc i64 %8 to i32
  %10 = load ptr, ptr %3, align 8
  %11 = getelementptr inbounds nuw %struct.mncp_rhash_key, ptr %10, i32 0, i32 1
  %12 = load i32, ptr %11, align 8
  %13 = add i32 %9, %12
  %14 = load ptr, ptr %3, align 8
  %15 = getelementptr inbounds nuw %struct.mncp_rhash_key, ptr %14, i32 0, i32 2
  %16 = load i8, ptr %15, align 4
  %17 = zext i8 %16 to i32
  %18 = add i32 %13, %17
  call void @llvm.lifetime.end.p0(i64 8, ptr %3) #8
  ret i32 %18
}