; Function Attrs: mustprogress nofree norecurse nosync nounwind null_pointer_is_valid sspstrong willreturn memory(argmem: read) uwtable
define internal i32 @mncp_hash(ptr noundef readonly captures(none) %0) #4 {
  %2 = load ptr, ptr %0, align 8
  %3 = ptrtoint ptr %2 to i64
  %4 = trunc i64 %3 to i32
  %5 = getelementptr inbounds nuw i8, ptr %0, i64 8
  %6 = load i32, ptr %5, align 8
  %7 = add i32 %6, %4
  %8 = getelementptr inbounds nuw i8, ptr %0, i64 12
  %9 = load i8, ptr %8, align 4
  %10 = zext i8 %9 to i32
  %11 = add i32 %7, %10
  ret i32 %11
}